
Master_spi_with_keypad_and_lcd.elf:     file format elf32-avr

Sections:
Idx Name          Size      VMA       LMA       File off  Algn
  0 .text         0000093e  00000000  00000000  00000094  2**1
                  CONTENTS, ALLOC, LOAD, READONLY, CODE
  1 .data         00000010  00800060  0000093e  000009d2  2**0
                  CONTENTS, ALLOC, LOAD, DATA
  2 .bss          00000009  00800070  00800070  000009e2  2**0
                  ALLOC

Disassembly of section .text:

00000000 <__vectors>:
   0:	0c 94 2a 00 	jmp	0x54	; 0x54 <__ctors_end>
   4:	0c 94 47 00 	jmp	0x8e	; 0x8e <__bad_interrupt>
   8:	0c 94 47 00 	jmp	0x8e	; 0x8e <__bad_interrupt>
   c:	0c 94 47 00 	jmp	0x8e	; 0x8e <__bad_interrupt>
  10:	0c 94 47 00 	jmp	0x8e	; 0x8e <__bad_interrupt>
  14:	0c 94 47 00 	jmp	0x8e	; 0x8e <__bad_interrupt>
  18:	0c 94 47 00 	jmp	0x8e	; 0x8e <__bad_interrupt>
  1c:	0c 94 47 00 	jmp	0x8e	; 0x8e <__bad_interrupt>
  20:	0c 94 47 00 	jmp	0x8e	; 0x8e <__bad_interrupt>
  24:	0c 94 47 00 	jmp	0x8e	; 0x8e <__bad_interrupt>
  28:	0c 94 47 00 	jmp	0x8e	; 0x8e <__bad_interrupt>
  2c:	0c 94 47 00 	jmp	0x8e	; 0x8e <__bad_interrupt>
  30:	0c 94 9e 03 	jmp	0x73c	; 0x73c <__vector_12>
  34:	0c 94 47 00 	jmp	0x8e	; 0x8e <__bad_interrupt>
  38:	0c 94 47 00 	jmp	0x8e	; 0x8e <__bad_interrupt>
  3c:	0c 94 47 00 	jmp	0x8e	; 0x8e <__bad_interrupt>
  40:	0c 94 47 00 	jmp	0x8e	; 0x8e <__bad_interrupt>
  44:	0c 94 47 00 	jmp	0x8e	; 0x8e <__bad_interrupt>
  48:	0c 94 47 00 	jmp	0x8e	; 0x8e <__bad_interrupt>
  4c:	0c 94 47 00 	jmp	0x8e	; 0x8e <__bad_interrupt>
  50:	0c 94 47 00 	jmp	0x8e	; 0x8e <__bad_interrupt>

00000054 <__ctors_end>:
  54:	11 24       	eor	r1, r1
  56:	1f be       	out	0x3f, r1	; 63
  58:	cf e5       	ldi	r28, 0x5F	; 95
  5a:	d8 e0       	ldi	r29, 0x08	; 8
  5c:	de bf       	out	0x3e, r29	; 62
  5e:	cd bf       	out	0x3d, r28	; 61

00000060 <__do_copy_data>:
  60:	10 e0       	ldi	r17, 0x00	; 0
  62:	a0 e6       	ldi	r26, 0x60	; 96
  64:	b0 e0       	ldi	r27, 0x00	; 0
  66:	ee e3       	ldi	r30, 0x3E	; 62
  68:	f9 e0       	ldi	r31, 0x09	; 9
  6a:	02 c0       	rjmp	.+4      	; 0x70 <.do_copy_data_start>

0000006c <.do_copy_data_loop>:
  6c:	05 90       	lpm	r0, Z+
  6e:	0d 92       	st	X+, r0

00000070 <.do_copy_data_start>:
  70:	a0 37       	cpi	r26, 0x70	; 112
  72:	b1 07       	cpc	r27, r17
  74:	d9 f7       	brne	.-10     	; 0x6c <.do_copy_data_loop>

00000076 <__do_clear_bss>:
  76:	10 e0       	ldi	r17, 0x00	; 0
  78:	a0 e7       	ldi	r26, 0x70	; 112
  7a:	b0 e0       	ldi	r27, 0x00	; 0
  7c:	01 c0       	rjmp	.+2      	; 0x80 <.do_clear_bss_start>

0000007e <.do_clear_bss_loop>:
  7e:	1d 92       	st	X+, r1

00000080 <.do_clear_bss_start>:
  80:	a9 37       	cpi	r26, 0x79	; 121
  82:	b1 07       	cpc	r27, r17
  84:	e1 f7       	brne	.-8      	; 0x7e <.do_clear_bss_loop>
  86:	0e 94 76 04 	call	0x8ec	; 0x8ec <main>
  8a:	0c 94 9d 04 	jmp	0x93a	; 0x93a <_exit>

0000008e <__bad_interrupt>:
  8e:	0c 94 00 00 	jmp	0	; 0x0 <__vectors>

00000092 <DIO_vsetPINDir>:
  92:	82 34       	cpi	r24, 0x42	; 66
  94:	29 f1       	breq	.+74     	; 0xe0 <DIO_vsetPINDir+0x4e>
  96:	83 34       	cpi	r24, 0x43	; 67
  98:	20 f4       	brcc	.+8      	; 0xa2 <DIO_vsetPINDir+0x10>
  9a:	81 34       	cpi	r24, 0x41	; 65
  9c:	09 f0       	breq	.+2      	; 0xa0 <DIO_vsetPINDir+0xe>
  9e:	6a c0       	rjmp	.+212    	; 0x174 <DIO_vsetPINDir+0xe2>
  a0:	06 c0       	rjmp	.+12     	; 0xae <DIO_vsetPINDir+0x1c>
  a2:	83 34       	cpi	r24, 0x43	; 67
  a4:	b1 f1       	breq	.+108    	; 0x112 <DIO_vsetPINDir+0x80>
  a6:	84 34       	cpi	r24, 0x44	; 68
  a8:	09 f0       	breq	.+2      	; 0xac <DIO_vsetPINDir+0x1a>
  aa:	64 c0       	rjmp	.+200    	; 0x174 <DIO_vsetPINDir+0xe2>
  ac:	4b c0       	rjmp	.+150    	; 0x144 <DIO_vsetPINDir+0xb2>
  ae:	41 30       	cpi	r20, 0x01	; 1
  b0:	59 f4       	brne	.+22     	; 0xc8 <DIO_vsetPINDir+0x36>
  b2:	2a b3       	in	r18, 0x1a	; 26
  b4:	81 e0       	ldi	r24, 0x01	; 1
  b6:	90 e0       	ldi	r25, 0x00	; 0
  b8:	02 c0       	rjmp	.+4      	; 0xbe <DIO_vsetPINDir+0x2c>
  ba:	88 0f       	add	r24, r24
  bc:	99 1f       	adc	r25, r25
  be:	6a 95       	dec	r22
  c0:	e2 f7       	brpl	.-8      	; 0xba <DIO_vsetPINDir+0x28>
  c2:	28 2b       	or	r18, r24
  c4:	2a bb       	out	0x1a, r18	; 26
  c6:	08 95       	ret
  c8:	2a b3       	in	r18, 0x1a	; 26
  ca:	81 e0       	ldi	r24, 0x01	; 1
  cc:	90 e0       	ldi	r25, 0x00	; 0
  ce:	02 c0       	rjmp	.+4      	; 0xd4 <DIO_vsetPINDir+0x42>
  d0:	88 0f       	add	r24, r24
  d2:	99 1f       	adc	r25, r25
  d4:	6a 95       	dec	r22
  d6:	e2 f7       	brpl	.-8      	; 0xd0 <DIO_vsetPINDir+0x3e>
  d8:	80 95       	com	r24
  da:	82 23       	and	r24, r18
  dc:	8a bb       	out	0x1a, r24	; 26
  de:	08 95       	ret
  e0:	41 30       	cpi	r20, 0x01	; 1
  e2:	59 f4       	brne	.+22     	; 0xfa <DIO_vsetPINDir+0x68>
  e4:	27 b3       	in	r18, 0x17	; 23
  e6:	81 e0       	ldi	r24, 0x01	; 1
  e8:	90 e0       	ldi	r25, 0x00	; 0
  ea:	02 c0       	rjmp	.+4      	; 0xf0 <DIO_vsetPINDir+0x5e>
  ec:	88 0f       	add	r24, r24
  ee:	99 1f       	adc	r25, r25
  f0:	6a 95       	dec	r22
  f2:	e2 f7       	brpl	.-8      	; 0xec <DIO_vsetPINDir+0x5a>
  f4:	28 2b       	or	r18, r24
  f6:	27 bb       	out	0x17, r18	; 23
  f8:	08 95       	ret
  fa:	27 b3       	in	r18, 0x17	; 23
  fc:	81 e0       	ldi	r24, 0x01	; 1
  fe:	90 e0       	ldi	r25, 0x00	; 0
 100:	02 c0       	rjmp	.+4      	; 0x106 <DIO_vsetPINDir+0x74>
 102:	88 0f       	add	r24, r24
 104:	99 1f       	adc	r25, r25
 106:	6a 95       	dec	r22
 108:	e2 f7       	brpl	.-8      	; 0x102 <DIO_vsetPINDir+0x70>
 10a:	80 95       	com	r24
 10c:	82 23       	and	r24, r18
 10e:	87 bb       	out	0x17, r24	; 23
 110:	08 95       	ret
 112:	41 30       	cpi	r20, 0x01	; 1
 114:	59 f4       	brne	.+22     	; 0x12c <DIO_vsetPINDir+0x9a>
 116:	24 b3       	in	r18, 0x14	; 20
 118:	81 e0       	ldi	r24, 0x01	; 1
 11a:	90 e0       	ldi	r25, 0x00	; 0
 11c:	02 c0       	rjmp	.+4      	; 0x122 <DIO_vsetPINDir+0x90>
 11e:	88 0f       	add	r24, r24
 120:	99 1f       	adc	r25, r25
 122:	6a 95       	dec	r22
 124:	e2 f7       	brpl	.-8      	; 0x11e <DIO_vsetPINDir+0x8c>
 126:	28 2b       	or	r18, r24
 128:	24 bb       	out	0x14, r18	; 20
 12a:	08 95       	ret
 12c:	24 b3       	in	r18, 0x14	; 20
 12e:	81 e0       	ldi	r24, 0x01	; 1
 130:	90 e0       	ldi	r25, 0x00	; 0
 132:	02 c0       	rjmp	.+4      	; 0x138 <DIO_vsetPINDir+0xa6>
 134:	88 0f       	add	r24, r24
 136:	99 1f       	adc	r25, r25
 138:	6a 95       	dec	r22
 13a:	e2 f7       	brpl	.-8      	; 0x134 <DIO_vsetPINDir+0xa2>
 13c:	80 95       	com	r24
 13e:	82 23       	and	r24, r18
 140:	84 bb       	out	0x14, r24	; 20
 142:	08 95       	ret
 144:	41 30       	cpi	r20, 0x01	; 1
 146:	59 f4       	brne	.+22     	; 0x15e <DIO_vsetPINDir+0xcc>
 148:	21 b3       	in	r18, 0x11	; 17
 14a:	81 e0       	ldi	r24, 0x01	; 1
 14c:	90 e0       	ldi	r25, 0x00	; 0
 14e:	02 c0       	rjmp	.+4      	; 0x154 <DIO_vsetPINDir+0xc2>
 150:	88 0f       	add	r24, r24
 152:	99 1f       	adc	r25, r25
 154:	6a 95       	dec	r22
 156:	e2 f7       	brpl	.-8      	; 0x150 <DIO_vsetPINDir+0xbe>
 158:	28 2b       	or	r18, r24
 15a:	21 bb       	out	0x11, r18	; 17
 15c:	08 95       	ret
 15e:	21 b3       	in	r18, 0x11	; 17
 160:	81 e0       	ldi	r24, 0x01	; 1
 162:	90 e0       	ldi	r25, 0x00	; 0
 164:	02 c0       	rjmp	.+4      	; 0x16a <DIO_vsetPINDir+0xd8>
 166:	88 0f       	add	r24, r24
 168:	99 1f       	adc	r25, r25
 16a:	6a 95       	dec	r22
 16c:	e2 f7       	brpl	.-8      	; 0x166 <DIO_vsetPINDir+0xd4>
 16e:	80 95       	com	r24
 170:	82 23       	and	r24, r18
 172:	81 bb       	out	0x11, r24	; 17
 174:	08 95       	ret

00000176 <DIO_write>:
 176:	82 34       	cpi	r24, 0x42	; 66
 178:	29 f1       	breq	.+74     	; 0x1c4 <DIO_write+0x4e>
 17a:	83 34       	cpi	r24, 0x43	; 67
 17c:	20 f4       	brcc	.+8      	; 0x186 <DIO_write+0x10>
 17e:	81 34       	cpi	r24, 0x41	; 65
 180:	09 f0       	breq	.+2      	; 0x184 <DIO_write+0xe>
 182:	6a c0       	rjmp	.+212    	; 0x258 <DIO_write+0xe2>
 184:	06 c0       	rjmp	.+12     	; 0x192 <DIO_write+0x1c>
 186:	83 34       	cpi	r24, 0x43	; 67
 188:	b1 f1       	breq	.+108    	; 0x1f6 <DIO_write+0x80>
 18a:	84 34       	cpi	r24, 0x44	; 68
 18c:	09 f0       	breq	.+2      	; 0x190 <DIO_write+0x1a>
 18e:	64 c0       	rjmp	.+200    	; 0x258 <DIO_write+0xe2>
 190:	4b c0       	rjmp	.+150    	; 0x228 <DIO_write+0xb2>
 192:	41 30       	cpi	r20, 0x01	; 1
 194:	59 f4       	brne	.+22     	; 0x1ac <DIO_write+0x36>
 196:	2b b3       	in	r18, 0x1b	; 27
 198:	81 e0       	ldi	r24, 0x01	; 1
 19a:	90 e0       	ldi	r25, 0x00	; 0
 19c:	02 c0       	rjmp	.+4      	; 0x1a2 <DIO_write+0x2c>
 19e:	88 0f       	add	r24, r24
 1a0:	99 1f       	adc	r25, r25
 1a2:	6a 95       	dec	r22
 1a4:	e2 f7       	brpl	.-8      	; 0x19e <DIO_write+0x28>
 1a6:	28 2b       	or	r18, r24
 1a8:	2b bb       	out	0x1b, r18	; 27
 1aa:	08 95       	ret
 1ac:	2b b3       	in	r18, 0x1b	; 27
 1ae:	81 e0       	ldi	r24, 0x01	; 1
 1b0:	90 e0       	ldi	r25, 0x00	; 0
 1b2:	02 c0       	rjmp	.+4      	; 0x1b8 <DIO_write+0x42>
 1b4:	88 0f       	add	r24, r24
 1b6:	99 1f       	adc	r25, r25
 1b8:	6a 95       	dec	r22
 1ba:	e2 f7       	brpl	.-8      	; 0x1b4 <DIO_write+0x3e>
 1bc:	80 95       	com	r24
 1be:	82 23       	and	r24, r18
 1c0:	8b bb       	out	0x1b, r24	; 27
 1c2:	08 95       	ret
 1c4:	41 30       	cpi	r20, 0x01	; 1
 1c6:	59 f4       	brne	.+22     	; 0x1de <DIO_write+0x68>
 1c8:	28 b3       	in	r18, 0x18	; 24
 1ca:	81 e0       	ldi	r24, 0x01	; 1
 1cc:	90 e0       	ldi	r25, 0x00	; 0
 1ce:	02 c0       	rjmp	.+4      	; 0x1d4 <DIO_write+0x5e>
 1d0:	88 0f       	add	r24, r24
 1d2:	99 1f       	adc	r25, r25
 1d4:	6a 95       	dec	r22
 1d6:	e2 f7       	brpl	.-8      	; 0x1d0 <DIO_write+0x5a>
 1d8:	28 2b       	or	r18, r24
 1da:	28 bb       	out	0x18, r18	; 24
 1dc:	08 95       	ret
 1de:	28 b3       	in	r18, 0x18	; 24
 1e0:	81 e0       	ldi	r24, 0x01	; 1
 1e2:	90 e0       	ldi	r25, 0x00	; 0
 1e4:	02 c0       	rjmp	.+4      	; 0x1ea <DIO_write+0x74>
 1e6:	88 0f       	add	r24, r24
 1e8:	99 1f       	adc	r25, r25
 1ea:	6a 95       	dec	r22
 1ec:	e2 f7       	brpl	.-8      	; 0x1e6 <DIO_write+0x70>
 1ee:	80 95       	com	r24
 1f0:	82 23       	and	r24, r18
 1f2:	88 bb       	out	0x18, r24	; 24
 1f4:	08 95       	ret
 1f6:	41 30       	cpi	r20, 0x01	; 1
 1f8:	59 f4       	brne	.+22     	; 0x210 <DIO_write+0x9a>
 1fa:	25 b3       	in	r18, 0x15	; 21
 1fc:	81 e0       	ldi	r24, 0x01	; 1
 1fe:	90 e0       	ldi	r25, 0x00	; 0
 200:	02 c0       	rjmp	.+4      	; 0x206 <DIO_write+0x90>
 202:	88 0f       	add	r24, r24
 204:	99 1f       	adc	r25, r25
 206:	6a 95       	dec	r22
 208:	e2 f7       	brpl	.-8      	; 0x202 <DIO_write+0x8c>
 20a:	28 2b       	or	r18, r24
 20c:	25 bb       	out	0x15, r18	; 21
 20e:	08 95       	ret
 210:	25 b3       	in	r18, 0x15	; 21
 212:	81 e0       	ldi	r24, 0x01	; 1
 214:	90 e0       	ldi	r25, 0x00	; 0
 216:	02 c0       	rjmp	.+4      	; 0x21c <DIO_write+0xa6>
 218:	88 0f       	add	r24, r24
 21a:	99 1f       	adc	r25, r25
 21c:	6a 95       	dec	r22
 21e:	e2 f7       	brpl	.-8      	; 0x218 <DIO_write+0xa2>
 220:	80 95       	com	r24
 222:	82 23       	and	r24, r18
 224:	85 bb       	out	0x15, r24	; 21
 226:	08 95       	ret
 228:	41 30       	cpi	r20, 0x01	; 1
 22a:	59 f4       	brne	.+22     	; 0x242 <DIO_write+0xcc>
 22c:	22 b3       	in	r18, 0x12	; 18
 22e:	81 e0       	ldi	r24, 0x01	; 1
 230:	90 e0       	ldi	r25, 0x00	; 0
 232:	02 c0       	rjmp	.+4      	; 0x238 <DIO_write+0xc2>
 234:	88 0f       	add	r24, r24
 236:	99 1f       	adc	r25, r25
 238:	6a 95       	dec	r22
 23a:	e2 f7       	brpl	.-8      	; 0x234 <DIO_write+0xbe>
 23c:	28 2b       	or	r18, r24
 23e:	22 bb       	out	0x12, r18	; 18
 240:	08 95       	ret
 242:	22 b3       	in	r18, 0x12	; 18
 244:	81 e0       	ldi	r24, 0x01	; 1
 246:	90 e0       	ldi	r25, 0x00	; 0
 248:	02 c0       	rjmp	.+4      	; 0x24e <DIO_write+0xd8>
 24a:	88 0f       	add	r24, r24
 24c:	99 1f       	adc	r25, r25
 24e:	6a 95       	dec	r22
 250:	e2 f7       	brpl	.-8      	; 0x24a <DIO_write+0xd4>
 252:	80 95       	com	r24
 254:	82 23       	and	r24, r18
 256:	82 bb       	out	0x12, r24	; 18
 258:	08 95       	ret

0000025a <DIO_u8read>:
 25a:	82 34       	cpi	r24, 0x42	; 66
 25c:	69 f0       	breq	.+26     	; 0x278 <DIO_u8read+0x1e>
 25e:	83 34       	cpi	r24, 0x43	; 67
 260:	18 f4       	brcc	.+6      	; 0x268 <DIO_u8read+0xe>
 262:	81 34       	cpi	r24, 0x41	; 65
 264:	29 f4       	brne	.+10     	; 0x270 <DIO_u8read+0x16>
 266:	06 c0       	rjmp	.+12     	; 0x274 <DIO_u8read+0x1a>
 268:	83 34       	cpi	r24, 0x43	; 67
 26a:	41 f0       	breq	.+16     	; 0x27c <DIO_u8read+0x22>
 26c:	84 34       	cpi	r24, 0x44	; 68
 26e:	c1 f0       	breq	.+48     	; 0x2a0 <DIO_u8read+0x46>
 270:	80 e0       	ldi	r24, 0x00	; 0
 272:	08 95       	ret
 274:	29 b3       	in	r18, 0x19	; 25
 276:	03 c0       	rjmp	.+6      	; 0x27e <DIO_u8read+0x24>
 278:	26 b3       	in	r18, 0x16	; 22
 27a:	01 c0       	rjmp	.+2      	; 0x27e <DIO_u8read+0x24>
 27c:	23 b3       	in	r18, 0x13	; 19
 27e:	81 e0       	ldi	r24, 0x01	; 1
 280:	90 e0       	ldi	r25, 0x00	; 0
 282:	06 2e       	mov	r0, r22
 284:	02 c0       	rjmp	.+4      	; 0x28a <DIO_u8read+0x30>
 286:	88 0f       	add	r24, r24
 288:	99 1f       	adc	r25, r25
 28a:	0a 94       	dec	r0
 28c:	e2 f7       	brpl	.-8      	; 0x286 <DIO_u8read+0x2c>
 28e:	30 e0       	ldi	r19, 0x00	; 0
 290:	82 23       	and	r24, r18
 292:	93 23       	and	r25, r19
 294:	02 c0       	rjmp	.+4      	; 0x29a <DIO_u8read+0x40>
 296:	95 95       	asr	r25
 298:	87 95       	ror	r24
 29a:	6a 95       	dec	r22
 29c:	e2 f7       	brpl	.-8      	; 0x296 <DIO_u8read+0x3c>
 29e:	08 95       	ret
 2a0:	20 b3       	in	r18, 0x10	; 16
 2a2:	81 e0       	ldi	r24, 0x01	; 1
 2a4:	90 e0       	ldi	r25, 0x00	; 0
 2a6:	06 2e       	mov	r0, r22
 2a8:	02 c0       	rjmp	.+4      	; 0x2ae <DIO_u8read+0x54>
 2aa:	88 0f       	add	r24, r24
 2ac:	99 1f       	adc	r25, r25
 2ae:	0a 94       	dec	r0
 2b0:	e2 f7       	brpl	.-8      	; 0x2aa <DIO_u8read+0x50>
 2b2:	30 e0       	ldi	r19, 0x00	; 0
 2b4:	82 23       	and	r24, r18
 2b6:	93 23       	and	r25, r19
 2b8:	02 c0       	rjmp	.+4      	; 0x2be <DIO_u8read+0x64>
 2ba:	95 95       	asr	r25
 2bc:	87 95       	ror	r24
 2be:	6a 95       	dec	r22
 2c0:	e2 f7       	brpl	.-8      	; 0x2ba <DIO_u8read+0x60>
 2c2:	08 95       	ret

000002c4 <DIO_toggle>:
 2c4:	82 34       	cpi	r24, 0x42	; 66
 2c6:	a9 f0       	breq	.+42     	; 0x2f2 <DIO_toggle+0x2e>
 2c8:	83 34       	cpi	r24, 0x43	; 67
 2ca:	18 f4       	brcc	.+6      	; 0x2d2 <DIO_toggle+0xe>
 2cc:	81 34       	cpi	r24, 0x41	; 65
 2ce:	89 f5       	brne	.+98     	; 0x332 <DIO_toggle+0x6e>
 2d0:	05 c0       	rjmp	.+10     	; 0x2dc <DIO_toggle+0x18>
 2d2:	83 34       	cpi	r24, 0x43	; 67
 2d4:	c9 f0       	breq	.+50     	; 0x308 <DIO_toggle+0x44>
 2d6:	84 34       	cpi	r24, 0x44	; 68
 2d8:	61 f5       	brne	.+88     	; 0x332 <DIO_toggle+0x6e>
 2da:	21 c0       	rjmp	.+66     	; 0x31e <DIO_toggle+0x5a>
 2dc:	2b b3       	in	r18, 0x1b	; 27
 2de:	81 e0       	ldi	r24, 0x01	; 1
 2e0:	90 e0       	ldi	r25, 0x00	; 0
 2e2:	02 c0       	rjmp	.+4      	; 0x2e8 <DIO_toggle+0x24>
 2e4:	88 0f       	add	r24, r24
 2e6:	99 1f       	adc	r25, r25
 2e8:	6a 95       	dec	r22
 2ea:	e2 f7       	brpl	.-8      	; 0x2e4 <DIO_toggle+0x20>
 2ec:	28 27       	eor	r18, r24
 2ee:	2b bb       	out	0x1b, r18	; 27
 2f0:	08 95       	ret
 2f2:	28 b3       	in	r18, 0x18	; 24
 2f4:	81 e0       	ldi	r24, 0x01	; 1
 2f6:	90 e0       	ldi	r25, 0x00	; 0
 2f8:	02 c0       	rjmp	.+4      	; 0x2fe <DIO_toggle+0x3a>
 2fa:	88 0f       	add	r24, r24
 2fc:	99 1f       	adc	r25, r25
 2fe:	6a 95       	dec	r22
 300:	e2 f7       	brpl	.-8      	; 0x2fa <DIO_toggle+0x36>
 302:	28 27       	eor	r18, r24
 304:	28 bb       	out	0x18, r18	; 24
 306:	08 95       	ret
 308:	25 b3       	in	r18, 0x15	; 21
 30a:	81 e0       	ldi	r24, 0x01	; 1
 30c:	90 e0       	ldi	r25, 0x00	; 0
 30e:	02 c0       	rjmp	.+4      	; 0x314 <DIO_toggle+0x50>
 310:	88 0f       	add	r24, r24
 312:	99 1f       	adc	r25, r25
 314:	6a 95       	dec	r22
 316:	e2 f7       	brpl	.-8      	; 0x310 <DIO_toggle+0x4c>
 318:	28 27       	eor	r18, r24
 31a:	25 bb       	out	0x15, r18	; 21
 31c:	08 95       	ret
 31e:	22 b3       	in	r18, 0x12	; 18
 320:	81 e0       	ldi	r24, 0x01	; 1
 322:	90 e0       	ldi	r25, 0x00	; 0
 324:	02 c0       	rjmp	.+4      	; 0x32a <DIO_toggle+0x66>
 326:	88 0f       	add	r24, r24
 328:	99 1f       	adc	r25, r25
 32a:	6a 95       	dec	r22
 32c:	e2 f7       	brpl	.-8      	; 0x326 <DIO_toggle+0x62>
 32e:	28 27       	eor	r18, r24
 330:	22 bb       	out	0x12, r18	; 18
 332:	08 95       	ret

00000334 <DIO_set_port_direction>:
 334:	82 34       	cpi	r24, 0x42	; 66
 336:	61 f0       	breq	.+24     	; 0x350 <DIO_set_port_direction+0x1c>
 338:	83 34       	cpi	r24, 0x43	; 67
 33a:	18 f4       	brcc	.+6      	; 0x342 <DIO_set_port_direction+0xe>
 33c:	81 34       	cpi	r24, 0x41	; 65
 33e:	69 f4       	brne	.+26     	; 0x35a <DIO_set_port_direction+0x26>
 340:	05 c0       	rjmp	.+10     	; 0x34c <DIO_set_port_direction+0x18>
 342:	83 34       	cpi	r24, 0x43	; 67
 344:	39 f0       	breq	.+14     	; 0x354 <DIO_set_port_direction+0x20>
 346:	84 34       	cpi	r24, 0x44	; 68
 348:	41 f4       	brne	.+16     	; 0x35a <DIO_set_port_direction+0x26>
 34a:	06 c0       	rjmp	.+12     	; 0x358 <DIO_set_port_direction+0x24>
 34c:	6a bb       	out	0x1a, r22	; 26
 34e:	08 95       	ret
 350:	67 bb       	out	0x17, r22	; 23
 352:	08 95       	ret
 354:	64 bb       	out	0x14, r22	; 20
 356:	08 95       	ret
 358:	61 bb       	out	0x11, r22	; 17
 35a:	08 95       	ret

0000035c <DIO_write_port>:
 35c:	82 34       	cpi	r24, 0x42	; 66
 35e:	61 f0       	breq	.+24     	; 0x378 <DIO_write_port+0x1c>
 360:	83 34       	cpi	r24, 0x43	; 67
 362:	18 f4       	brcc	.+6      	; 0x36a <DIO_write_port+0xe>
 364:	81 34       	cpi	r24, 0x41	; 65
 366:	69 f4       	brne	.+26     	; 0x382 <DIO_write_port+0x26>
 368:	05 c0       	rjmp	.+10     	; 0x374 <DIO_write_port+0x18>
 36a:	83 34       	cpi	r24, 0x43	; 67
 36c:	39 f0       	breq	.+14     	; 0x37c <DIO_write_port+0x20>
 36e:	84 34       	cpi	r24, 0x44	; 68
 370:	41 f4       	brne	.+16     	; 0x382 <DIO_write_port+0x26>
 372:	06 c0       	rjmp	.+12     	; 0x380 <DIO_write_port+0x24>
 374:	6b bb       	out	0x1b, r22	; 27
 376:	08 95       	ret
 378:	68 bb       	out	0x18, r22	; 24
 37a:	08 95       	ret
 37c:	65 bb       	out	0x15, r22	; 21
 37e:	08 95       	ret
 380:	62 bb       	out	0x12, r22	; 18
 382:	08 95       	ret

00000384 <DIO_read_port>:
 384:	82 34       	cpi	r24, 0x42	; 66
 386:	69 f0       	breq	.+26     	; 0x3a2 <DIO_read_port+0x1e>
 388:	83 34       	cpi	r24, 0x43	; 67
 38a:	18 f4       	brcc	.+6      	; 0x392 <DIO_read_port+0xe>
 38c:	81 34       	cpi	r24, 0x41	; 65
 38e:	29 f4       	brne	.+10     	; 0x39a <DIO_read_port+0x16>
 390:	06 c0       	rjmp	.+12     	; 0x39e <DIO_read_port+0x1a>
 392:	83 34       	cpi	r24, 0x43	; 67
 394:	41 f0       	breq	.+16     	; 0x3a6 <DIO_read_port+0x22>
 396:	84 34       	cpi	r24, 0x44	; 68
 398:	41 f0       	breq	.+16     	; 0x3aa <DIO_read_port+0x26>
 39a:	80 e0       	ldi	r24, 0x00	; 0
 39c:	08 95       	ret
 39e:	89 b3       	in	r24, 0x19	; 25
 3a0:	08 95       	ret
 3a2:	86 b3       	in	r24, 0x16	; 22
 3a4:	08 95       	ret
 3a6:	83 b3       	in	r24, 0x13	; 19
 3a8:	08 95       	ret
 3aa:	80 b3       	in	r24, 0x10	; 16
 3ac:	08 95       	ret

000003ae <DIO_vconnectpullup>:
 3ae:	82 34       	cpi	r24, 0x42	; 66
 3b0:	29 f1       	breq	.+74     	; 0x3fc <DIO_vconnectpullup+0x4e>
 3b2:	83 34       	cpi	r24, 0x43	; 67
 3b4:	20 f4       	brcc	.+8      	; 0x3be <DIO_vconnectpullup+0x10>
 3b6:	81 34       	cpi	r24, 0x41	; 65
 3b8:	09 f0       	breq	.+2      	; 0x3bc <DIO_vconnectpullup+0xe>
 3ba:	6a c0       	rjmp	.+212    	; 0x490 <DIO_vconnectpullup+0xe2>
 3bc:	06 c0       	rjmp	.+12     	; 0x3ca <DIO_vconnectpullup+0x1c>
 3be:	83 34       	cpi	r24, 0x43	; 67
 3c0:	b1 f1       	breq	.+108    	; 0x42e <DIO_vconnectpullup+0x80>
 3c2:	84 34       	cpi	r24, 0x44	; 68
 3c4:	09 f0       	breq	.+2      	; 0x3c8 <DIO_vconnectpullup+0x1a>
 3c6:	64 c0       	rjmp	.+200    	; 0x490 <DIO_vconnectpullup+0xe2>
 3c8:	4b c0       	rjmp	.+150    	; 0x460 <DIO_vconnectpullup+0xb2>
 3ca:	41 30       	cpi	r20, 0x01	; 1
 3cc:	59 f4       	brne	.+22     	; 0x3e4 <DIO_vconnectpullup+0x36>
 3ce:	2b b3       	in	r18, 0x1b	; 27
 3d0:	81 e0       	ldi	r24, 0x01	; 1
 3d2:	90 e0       	ldi	r25, 0x00	; 0
 3d4:	02 c0       	rjmp	.+4      	; 0x3da <DIO_vconnectpullup+0x2c>
 3d6:	88 0f       	add	r24, r24
 3d8:	99 1f       	adc	r25, r25
 3da:	6a 95       	dec	r22
 3dc:	e2 f7       	brpl	.-8      	; 0x3d6 <DIO_vconnectpullup+0x28>
 3de:	28 2b       	or	r18, r24
 3e0:	2b bb       	out	0x1b, r18	; 27
 3e2:	08 95       	ret
 3e4:	2b b3       	in	r18, 0x1b	; 27
 3e6:	81 e0       	ldi	r24, 0x01	; 1
 3e8:	90 e0       	ldi	r25, 0x00	; 0
 3ea:	02 c0       	rjmp	.+4      	; 0x3f0 <DIO_vconnectpullup+0x42>
 3ec:	88 0f       	add	r24, r24
 3ee:	99 1f       	adc	r25, r25
 3f0:	6a 95       	dec	r22
 3f2:	e2 f7       	brpl	.-8      	; 0x3ec <DIO_vconnectpullup+0x3e>
 3f4:	80 95       	com	r24
 3f6:	82 23       	and	r24, r18
 3f8:	8b bb       	out	0x1b, r24	; 27
 3fa:	08 95       	ret
 3fc:	41 30       	cpi	r20, 0x01	; 1
 3fe:	59 f4       	brne	.+22     	; 0x416 <DIO_vconnectpullup+0x68>
 400:	28 b3       	in	r18, 0x18	; 24
 402:	81 e0       	ldi	r24, 0x01	; 1
 404:	90 e0       	ldi	r25, 0x00	; 0
 406:	02 c0       	rjmp	.+4      	; 0x40c <DIO_vconnectpullup+0x5e>
 408:	88 0f       	add	r24, r24
 40a:	99 1f       	adc	r25, r25
 40c:	6a 95       	dec	r22
 40e:	e2 f7       	brpl	.-8      	; 0x408 <DIO_vconnectpullup+0x5a>
 410:	28 2b       	or	r18, r24
 412:	28 bb       	out	0x18, r18	; 24
 414:	08 95       	ret
 416:	28 b3       	in	r18, 0x18	; 24
 418:	81 e0       	ldi	r24, 0x01	; 1
 41a:	90 e0       	ldi	r25, 0x00	; 0
 41c:	02 c0       	rjmp	.+4      	; 0x422 <DIO_vconnectpullup+0x74>
 41e:	88 0f       	add	r24, r24
 420:	99 1f       	adc	r25, r25
 422:	6a 95       	dec	r22
 424:	e2 f7       	brpl	.-8      	; 0x41e <DIO_vconnectpullup+0x70>
 426:	80 95       	com	r24
 428:	82 23       	and	r24, r18
 42a:	88 bb       	out	0x18, r24	; 24
 42c:	08 95       	ret
 42e:	41 30       	cpi	r20, 0x01	; 1
 430:	59 f4       	brne	.+22     	; 0x448 <DIO_vconnectpullup+0x9a>
 432:	25 b3       	in	r18, 0x15	; 21
 434:	81 e0       	ldi	r24, 0x01	; 1
 436:	90 e0       	ldi	r25, 0x00	; 0
 438:	02 c0       	rjmp	.+4      	; 0x43e <DIO_vconnectpullup+0x90>
 43a:	88 0f       	add	r24, r24
 43c:	99 1f       	adc	r25, r25
 43e:	6a 95       	dec	r22
 440:	e2 f7       	brpl	.-8      	; 0x43a <DIO_vconnectpullup+0x8c>
 442:	28 2b       	or	r18, r24
 444:	25 bb       	out	0x15, r18	; 21
 446:	08 95       	ret
 448:	25 b3       	in	r18, 0x15	; 21
 44a:	81 e0       	ldi	r24, 0x01	; 1
 44c:	90 e0       	ldi	r25, 0x00	; 0
 44e:	02 c0       	rjmp	.+4      	; 0x454 <DIO_vconnectpullup+0xa6>
 450:	88 0f       	add	r24, r24
 452:	99 1f       	adc	r25, r25
 454:	6a 95       	dec	r22
 456:	e2 f7       	brpl	.-8      	; 0x450 <DIO_vconnectpullup+0xa2>
 458:	80 95       	com	r24
 45a:	82 23       	and	r24, r18
 45c:	85 bb       	out	0x15, r24	; 21
 45e:	08 95       	ret
 460:	41 30       	cpi	r20, 0x01	; 1
 462:	59 f4       	brne	.+22     	; 0x47a <DIO_vconnectpullup+0xcc>
 464:	22 b3       	in	r18, 0x12	; 18
 466:	81 e0       	ldi	r24, 0x01	; 1
 468:	90 e0       	ldi	r25, 0x00	; 0
 46a:	02 c0       	rjmp	.+4      	; 0x470 <DIO_vconnectpullup+0xc2>
 46c:	88 0f       	add	r24, r24
 46e:	99 1f       	adc	r25, r25
 470:	6a 95       	dec	r22
 472:	e2 f7       	brpl	.-8      	; 0x46c <DIO_vconnectpullup+0xbe>
 474:	28 2b       	or	r18, r24
 476:	22 bb       	out	0x12, r18	; 18
 478:	08 95       	ret
 47a:	22 b3       	in	r18, 0x12	; 18
 47c:	81 e0       	ldi	r24, 0x01	; 1
 47e:	90 e0       	ldi	r25, 0x00	; 0
 480:	02 c0       	rjmp	.+4      	; 0x486 <DIO_vconnectpullup+0xd8>
 482:	88 0f       	add	r24, r24
 484:	99 1f       	adc	r25, r25
 486:	6a 95       	dec	r22
 488:	e2 f7       	brpl	.-8      	; 0x482 <DIO_vconnectpullup+0xd4>
 48a:	80 95       	com	r24
 48c:	82 23       	and	r24, r18
 48e:	82 bb       	out	0x12, r24	; 18
 490:	08 95       	ret

00000492 <write_low_nibble>:
 492:	6f 70       	andi	r22, 0x0F	; 15
 494:	82 34       	cpi	r24, 0x42	; 66
 496:	81 f0       	breq	.+32     	; 0x4b8 <write_low_nibble+0x26>
 498:	83 34       	cpi	r24, 0x43	; 67
 49a:	18 f4       	brcc	.+6      	; 0x4a2 <write_low_nibble+0x10>
 49c:	81 34       	cpi	r24, 0x41	; 65
 49e:	f1 f4       	brne	.+60     	; 0x4dc <write_low_nibble+0x4a>
 4a0:	05 c0       	rjmp	.+10     	; 0x4ac <write_low_nibble+0x1a>
 4a2:	83 34       	cpi	r24, 0x43	; 67
 4a4:	79 f0       	breq	.+30     	; 0x4c4 <write_low_nibble+0x32>
 4a6:	84 34       	cpi	r24, 0x44	; 68
 4a8:	c9 f4       	brne	.+50     	; 0x4dc <write_low_nibble+0x4a>
 4aa:	12 c0       	rjmp	.+36     	; 0x4d0 <write_low_nibble+0x3e>
 4ac:	8b b3       	in	r24, 0x1b	; 27
 4ae:	80 7f       	andi	r24, 0xF0	; 240
 4b0:	8b bb       	out	0x1b, r24	; 27
 4b2:	8b b3       	in	r24, 0x1b	; 27
 4b4:	86 2b       	or	r24, r22
 4b6:	8b bb       	out	0x1b, r24	; 27
 4b8:	88 b3       	in	r24, 0x18	; 24
 4ba:	80 7f       	andi	r24, 0xF0	; 240
 4bc:	88 bb       	out	0x18, r24	; 24
 4be:	88 b3       	in	r24, 0x18	; 24
 4c0:	86 2b       	or	r24, r22
 4c2:	88 bb       	out	0x18, r24	; 24
 4c4:	85 b3       	in	r24, 0x15	; 21
 4c6:	80 7f       	andi	r24, 0xF0	; 240
 4c8:	85 bb       	out	0x15, r24	; 21
 4ca:	85 b3       	in	r24, 0x15	; 21
 4cc:	86 2b       	or	r24, r22
 4ce:	85 bb       	out	0x15, r24	; 21
 4d0:	82 b3       	in	r24, 0x12	; 18
 4d2:	80 7f       	andi	r24, 0xF0	; 240
 4d4:	82 bb       	out	0x12, r24	; 18
 4d6:	82 b3       	in	r24, 0x12	; 18
 4d8:	68 2b       	or	r22, r24
 4da:	62 bb       	out	0x12, r22	; 18
 4dc:	08 95       	ret

000004de <write_high_nibble>:
 4de:	62 95       	swap	r22
 4e0:	60 7f       	andi	r22, 0xF0	; 240
 4e2:	82 34       	cpi	r24, 0x42	; 66
 4e4:	81 f0       	breq	.+32     	; 0x506 <write_high_nibble+0x28>
 4e6:	83 34       	cpi	r24, 0x43	; 67
 4e8:	18 f4       	brcc	.+6      	; 0x4f0 <write_high_nibble+0x12>
 4ea:	81 34       	cpi	r24, 0x41	; 65
 4ec:	f1 f4       	brne	.+60     	; 0x52a <write_high_nibble+0x4c>
 4ee:	05 c0       	rjmp	.+10     	; 0x4fa <write_high_nibble+0x1c>
 4f0:	83 34       	cpi	r24, 0x43	; 67
 4f2:	79 f0       	breq	.+30     	; 0x512 <write_high_nibble+0x34>
 4f4:	84 34       	cpi	r24, 0x44	; 68
 4f6:	c9 f4       	brne	.+50     	; 0x52a <write_high_nibble+0x4c>
 4f8:	12 c0       	rjmp	.+36     	; 0x51e <write_high_nibble+0x40>
 4fa:	8b b3       	in	r24, 0x1b	; 27
 4fc:	8f 70       	andi	r24, 0x0F	; 15
 4fe:	8b bb       	out	0x1b, r24	; 27
 500:	8b b3       	in	r24, 0x1b	; 27
 502:	86 2b       	or	r24, r22
 504:	8b bb       	out	0x1b, r24	; 27
 506:	88 b3       	in	r24, 0x18	; 24
 508:	8f 70       	andi	r24, 0x0F	; 15
 50a:	88 bb       	out	0x18, r24	; 24
 50c:	88 b3       	in	r24, 0x18	; 24
 50e:	86 2b       	or	r24, r22
 510:	88 bb       	out	0x18, r24	; 24
 512:	85 b3       	in	r24, 0x15	; 21
 514:	8f 70       	andi	r24, 0x0F	; 15
 516:	85 bb       	out	0x15, r24	; 21
 518:	85 b3       	in	r24, 0x15	; 21
 51a:	86 2b       	or	r24, r22
 51c:	85 bb       	out	0x15, r24	; 21
 51e:	82 b3       	in	r24, 0x12	; 18
 520:	8f 70       	andi	r24, 0x0F	; 15
 522:	82 bb       	out	0x12, r24	; 18
 524:	82 b3       	in	r24, 0x12	; 18
 526:	68 2b       	or	r22, r24
 528:	62 bb       	out	0x12, r22	; 18
 52a:	08 95       	ret

0000052c <SPI_vInit>:
 52c:	6d 98       	cbi	0x0d, 5	; 13
 52e:	6c 98       	cbi	0x0d, 4	; 13
 530:	6b 98       	cbi	0x0d, 3	; 13
 532:	6a 98       	cbi	0x0d, 2	; 13
 534:	68 9a       	sbi	0x0d, 0	; 13
 536:	69 98       	cbi	0x0d, 1	; 13
 538:	70 98       	cbi	0x0e, 0	; 14
 53a:	6f 98       	cbi	0x0d, 7	; 13
 53c:	6e 9a       	sbi	0x0d, 6	; 13
 53e:	08 95       	ret

00000540 <SPI_u8InitConfig>:
 540:	fc 01       	movw	r30, r24
 542:	00 97       	sbiw	r24, 0x00	; 0
 544:	09 f4       	brne	.+2      	; 0x548 <SPI_u8InitConfig+0x8>
 546:	74 c0       	rjmp	.+232    	; 0x630 <SPI_u8InitConfig+0xf0>
 548:	45 81       	ldd	r20, Z+5	; 0x05
 54a:	44 23       	and	r20, r20
 54c:	09 f4       	brne	.+2      	; 0x550 <SPI_u8InitConfig+0x10>
 54e:	70 c0       	rjmp	.+224    	; 0x630 <SPI_u8InitConfig+0xf0>
 550:	34 81       	ldd	r19, Z+4	; 0x04
 552:	33 23       	and	r19, r19
 554:	09 f4       	brne	.+2      	; 0x558 <SPI_u8InitConfig+0x18>
 556:	6c c0       	rjmp	.+216    	; 0x630 <SPI_u8InitConfig+0xf0>
 558:	26 81       	ldd	r18, Z+6	; 0x06
 55a:	22 23       	and	r18, r18
 55c:	09 f4       	brne	.+2      	; 0x560 <SPI_u8InitConfig+0x20>
 55e:	68 c0       	rjmp	.+208    	; 0x630 <SPI_u8InitConfig+0xf0>
 560:	52 81       	ldd	r21, Z+2	; 0x02
 562:	55 23       	and	r21, r21
 564:	09 f4       	brne	.+2      	; 0x568 <SPI_u8InitConfig+0x28>
 566:	64 c0       	rjmp	.+200    	; 0x630 <SPI_u8InitConfig+0xf0>
 568:	70 81       	ld	r23, Z
 56a:	77 23       	and	r23, r23
 56c:	09 f4       	brne	.+2      	; 0x570 <SPI_u8InitConfig+0x30>
 56e:	60 c0       	rjmp	.+192    	; 0x630 <SPI_u8InitConfig+0xf0>
 570:	63 81       	ldd	r22, Z+3	; 0x03
 572:	66 23       	and	r22, r22
 574:	09 f4       	brne	.+2      	; 0x578 <SPI_u8InitConfig+0x38>
 576:	5c c0       	rjmp	.+184    	; 0x630 <SPI_u8InitConfig+0xf0>
 578:	91 81       	ldd	r25, Z+1	; 0x01
 57a:	99 23       	and	r25, r25
 57c:	09 f4       	brne	.+2      	; 0x580 <SPI_u8InitConfig+0x40>
 57e:	58 c0       	rjmp	.+176    	; 0x630 <SPI_u8InitConfig+0xf0>
 580:	41 30       	cpi	r20, 0x01	; 1
 582:	11 f0       	breq	.+4      	; 0x588 <SPI_u8InitConfig+0x48>
 584:	81 e0       	ldi	r24, 0x01	; 1
 586:	02 c0       	rjmp	.+4      	; 0x58c <SPI_u8InitConfig+0x4c>
 588:	6a 9a       	sbi	0x0d, 2	; 13
 58a:	80 e0       	ldi	r24, 0x00	; 0
 58c:	33 23       	and	r19, r19
 58e:	21 f0       	breq	.+8      	; 0x598 <SPI_u8InitConfig+0x58>
 590:	31 30       	cpi	r19, 0x01	; 1
 592:	21 f0       	breq	.+8      	; 0x59c <SPI_u8InitConfig+0x5c>
 594:	81 e0       	ldi	r24, 0x01	; 1
 596:	03 c0       	rjmp	.+6      	; 0x59e <SPI_u8InitConfig+0x5e>
 598:	6b 98       	cbi	0x0d, 3	; 13
 59a:	01 c0       	rjmp	.+2      	; 0x59e <SPI_u8InitConfig+0x5e>
 59c:	6b 9a       	sbi	0x0d, 3	; 13
 59e:	23 30       	cpi	r18, 0x03	; 3
 5a0:	b9 f0       	breq	.+46     	; 0x5d0 <SPI_u8InitConfig+0x90>
 5a2:	24 30       	cpi	r18, 0x04	; 4
 5a4:	28 f4       	brcc	.+10     	; 0x5b0 <SPI_u8InitConfig+0x70>
 5a6:	21 30       	cpi	r18, 0x01	; 1
 5a8:	69 f0       	breq	.+26     	; 0x5c4 <SPI_u8InitConfig+0x84>
 5aa:	22 30       	cpi	r18, 0x02	; 2
 5ac:	68 f4       	brcc	.+26     	; 0x5c8 <SPI_u8InitConfig+0x88>
 5ae:	08 c0       	rjmp	.+16     	; 0x5c0 <SPI_u8InitConfig+0x80>
 5b0:	25 30       	cpi	r18, 0x05	; 5
 5b2:	a1 f0       	breq	.+40     	; 0x5dc <SPI_u8InitConfig+0x9c>
 5b4:	25 30       	cpi	r18, 0x05	; 5
 5b6:	78 f0       	brcs	.+30     	; 0x5d6 <SPI_u8InitConfig+0x96>
 5b8:	26 30       	cpi	r18, 0x06	; 6
 5ba:	91 f0       	breq	.+36     	; 0x5e0 <SPI_u8InitConfig+0xa0>
 5bc:	81 e0       	ldi	r24, 0x01	; 1
 5be:	13 c0       	rjmp	.+38     	; 0x5e6 <SPI_u8InitConfig+0xa6>
 5c0:	68 98       	cbi	0x0d, 0	; 13
 5c2:	03 c0       	rjmp	.+6      	; 0x5ca <SPI_u8InitConfig+0x8a>
 5c4:	68 98       	cbi	0x0d, 0	; 13
 5c6:	05 c0       	rjmp	.+10     	; 0x5d2 <SPI_u8InitConfig+0x92>
 5c8:	68 9a       	sbi	0x0d, 0	; 13
 5ca:	69 98       	cbi	0x0d, 1	; 13
 5cc:	70 9a       	sbi	0x0e, 0	; 14
 5ce:	0b c0       	rjmp	.+22     	; 0x5e6 <SPI_u8InitConfig+0xa6>
 5d0:	68 9a       	sbi	0x0d, 0	; 13
 5d2:	69 98       	cbi	0x0d, 1	; 13
 5d4:	07 c0       	rjmp	.+14     	; 0x5e4 <SPI_u8InitConfig+0xa4>
 5d6:	68 98       	cbi	0x0d, 0	; 13
 5d8:	69 9a       	sbi	0x0d, 1	; 13
 5da:	f8 cf       	rjmp	.-16     	; 0x5cc <SPI_u8InitConfig+0x8c>
 5dc:	68 98       	cbi	0x0d, 0	; 13
 5de:	01 c0       	rjmp	.+2      	; 0x5e2 <SPI_u8InitConfig+0xa2>
 5e0:	68 9a       	sbi	0x0d, 0	; 13
 5e2:	69 9a       	sbi	0x0d, 1	; 13
 5e4:	70 98       	cbi	0x0e, 0	; 14
 5e6:	55 23       	and	r21, r21
 5e8:	31 f0       	breq	.+12     	; 0x5f6 <SPI_u8InitConfig+0xb6>
 5ea:	51 30       	cpi	r21, 0x01	; 1
 5ec:	11 f0       	breq	.+4      	; 0x5f2 <SPI_u8InitConfig+0xb2>
 5ee:	81 e0       	ldi	r24, 0x01	; 1
 5f0:	03 c0       	rjmp	.+6      	; 0x5f8 <SPI_u8InitConfig+0xb8>
 5f2:	6d 98       	cbi	0x0d, 5	; 13
 5f4:	01 c0       	rjmp	.+2      	; 0x5f8 <SPI_u8InitConfig+0xb8>
 5f6:	6d 9a       	sbi	0x0d, 5	; 13
 5f8:	66 23       	and	r22, r22
 5fa:	21 f0       	breq	.+8      	; 0x604 <SPI_u8InitConfig+0xc4>
 5fc:	61 30       	cpi	r22, 0x01	; 1
 5fe:	21 f0       	breq	.+8      	; 0x608 <SPI_u8InitConfig+0xc8>
 600:	81 e0       	ldi	r24, 0x01	; 1
 602:	03 c0       	rjmp	.+6      	; 0x60a <SPI_u8InitConfig+0xca>
 604:	6c 9a       	sbi	0x0d, 4	; 13
 606:	01 c0       	rjmp	.+2      	; 0x60a <SPI_u8InitConfig+0xca>
 608:	6c 98       	cbi	0x0d, 4	; 13
 60a:	77 23       	and	r23, r23
 60c:	21 f0       	breq	.+8      	; 0x616 <SPI_u8InitConfig+0xd6>
 60e:	71 30       	cpi	r23, 0x01	; 1
 610:	21 f0       	breq	.+8      	; 0x61a <SPI_u8InitConfig+0xda>
 612:	81 e0       	ldi	r24, 0x01	; 1
 614:	03 c0       	rjmp	.+6      	; 0x61c <SPI_u8InitConfig+0xdc>
 616:	6f 98       	cbi	0x0d, 7	; 13
 618:	01 c0       	rjmp	.+2      	; 0x61c <SPI_u8InitConfig+0xdc>
 61a:	6f 9a       	sbi	0x0d, 7	; 13
 61c:	99 23       	and	r25, r25
 61e:	21 f0       	breq	.+8      	; 0x628 <SPI_u8InitConfig+0xe8>
 620:	91 30       	cpi	r25, 0x01	; 1
 622:	21 f0       	breq	.+8      	; 0x62c <SPI_u8InitConfig+0xec>
 624:	81 e0       	ldi	r24, 0x01	; 1
 626:	08 95       	ret
 628:	6e 98       	cbi	0x0d, 6	; 13
 62a:	08 95       	ret
 62c:	6e 9a       	sbi	0x0d, 6	; 13
 62e:	08 95       	ret
 630:	82 e0       	ldi	r24, 0x02	; 2
 632:	08 95       	ret

00000634 <SPI_u8Tranceive>:
 634:	98 2f       	mov	r25, r24
 636:	fb 01       	movw	r30, r22
 638:	80 91 72 00 	lds	r24, 0x0072
 63c:	88 23       	and	r24, r24
 63e:	11 f0       	breq	.+4      	; 0x644 <SPI_u8Tranceive+0x10>
 640:	83 e0       	ldi	r24, 0x03	; 3
 642:	08 95       	ret
 644:	9f b9       	out	0x0f, r25	; 15
 646:	80 e0       	ldi	r24, 0x00	; 0
 648:	90 e0       	ldi	r25, 0x00	; 0
 64a:	a0 e0       	ldi	r26, 0x00	; 0
 64c:	b0 e0       	ldi	r27, 0x00	; 0
 64e:	03 c0       	rjmp	.+6      	; 0x656 <SPI_u8Tranceive+0x22>
 650:	01 96       	adiw	r24, 0x01	; 1
 652:	a1 1d       	adc	r26, r1
 654:	b1 1d       	adc	r27, r1
 656:	77 9b       	sbis	0x0e, 7	; 14
 658:	06 c0       	rjmp	.+12     	; 0x666 <SPI_u8Tranceive+0x32>
 65a:	80 51       	subi	r24, 0x10	; 16
 65c:	97 42       	sbci	r25, 0x27	; 39
 65e:	a0 40       	sbci	r26, 0x00	; 0
 660:	b0 40       	sbci	r27, 0x00	; 0
 662:	51 f4       	brne	.+20     	; 0x678 <SPI_u8Tranceive+0x44>
 664:	0d c0       	rjmp	.+26     	; 0x680 <SPI_u8Tranceive+0x4c>
 666:	80 31       	cpi	r24, 0x10	; 16
 668:	27 e2       	ldi	r18, 0x27	; 39
 66a:	92 07       	cpc	r25, r18
 66c:	20 e0       	ldi	r18, 0x00	; 0
 66e:	a2 07       	cpc	r26, r18
 670:	20 e0       	ldi	r18, 0x00	; 0
 672:	b2 07       	cpc	r27, r18
 674:	69 f7       	brne	.-38     	; 0x650 <SPI_u8Tranceive+0x1c>
 676:	04 c0       	rjmp	.+8      	; 0x680 <SPI_u8Tranceive+0x4c>
 678:	8f b1       	in	r24, 0x0f	; 15
 67a:	80 83       	st	Z, r24
 67c:	80 e0       	ldi	r24, 0x00	; 0
 67e:	01 c0       	rjmp	.+2      	; 0x682 <SPI_u8Tranceive+0x4e>
 680:	84 e0       	ldi	r24, 0x04	; 4
 682:	10 92 72 00 	sts	0x0072, r1
 686:	08 95       	ret

00000688 <SPI_u8BufferTranceiverSynch>:
 688:	df 92       	push	r13
 68a:	ef 92       	push	r14
 68c:	ff 92       	push	r15
 68e:	0f 93       	push	r16
 690:	1f 93       	push	r17
 692:	cf 93       	push	r28
 694:	df 93       	push	r29
 696:	7b 01       	movw	r14, r22
 698:	d4 2e       	mov	r13, r20
 69a:	00 97       	sbiw	r24, 0x00	; 0
 69c:	a1 f0       	breq	.+40     	; 0x6c6 <SPI_u8BufferTranceiverSynch+0x3e>
 69e:	61 15       	cp	r22, r1
 6a0:	71 05       	cpc	r23, r1
 6a2:	89 f0       	breq	.+34     	; 0x6c6 <SPI_u8BufferTranceiverSynch+0x3e>
 6a4:	8c 01       	movw	r16, r24
 6a6:	c0 e0       	ldi	r28, 0x00	; 0
 6a8:	d0 e0       	ldi	r29, 0x00	; 0
 6aa:	09 c0       	rjmp	.+18     	; 0x6be <SPI_u8BufferTranceiverSynch+0x36>
 6ac:	b7 01       	movw	r22, r14
 6ae:	6c 0f       	add	r22, r28
 6b0:	7d 1f       	adc	r23, r29
 6b2:	f8 01       	movw	r30, r16
 6b4:	81 91       	ld	r24, Z+
 6b6:	8f 01       	movw	r16, r30
 6b8:	0e 94 1a 03 	call	0x634	; 0x634 <SPI_u8Tranceive>
 6bc:	21 96       	adiw	r28, 0x01	; 1
 6be:	cd 15       	cp	r28, r13
 6c0:	a8 f3       	brcs	.-22     	; 0x6ac <SPI_u8BufferTranceiverSynch+0x24>
 6c2:	80 e0       	ldi	r24, 0x00	; 0
 6c4:	01 c0       	rjmp	.+2      	; 0x6c8 <SPI_u8BufferTranceiverSynch+0x40>
 6c6:	82 e0       	ldi	r24, 0x02	; 2
 6c8:	df 91       	pop	r29
 6ca:	cf 91       	pop	r28
 6cc:	1f 91       	pop	r17
 6ce:	0f 91       	pop	r16
 6d0:	ff 90       	pop	r15
 6d2:	ef 90       	pop	r14
 6d4:	df 90       	pop	r13
 6d6:	08 95       	ret

000006d8 <SPI_u8BufferTranceiverAsynch>:
 6d8:	fc 01       	movw	r30, r24
 6da:	80 91 72 00 	lds	r24, 0x0072
 6de:	88 23       	and	r24, r24
 6e0:	11 f0       	breq	.+4      	; 0x6e6 <SPI_u8BufferTranceiverAsynch+0xe>
 6e2:	83 e0       	ldi	r24, 0x03	; 3
 6e4:	08 95       	ret
 6e6:	30 97       	sbiw	r30, 0x00	; 0
 6e8:	39 f1       	breq	.+78     	; 0x738 <SPI_u8BufferTranceiverAsynch+0x60>
 6ea:	a0 81       	ld	r26, Z
 6ec:	b1 81       	ldd	r27, Z+1	; 0x01
 6ee:	10 97       	sbiw	r26, 0x00	; 0
 6f0:	19 f1       	breq	.+70     	; 0x738 <SPI_u8BufferTranceiverAsynch+0x60>
 6f2:	42 81       	ldd	r20, Z+2	; 0x02
 6f4:	53 81       	ldd	r21, Z+3	; 0x03
 6f6:	41 15       	cp	r20, r1
 6f8:	51 05       	cpc	r21, r1
 6fa:	f1 f0       	breq	.+60     	; 0x738 <SPI_u8BufferTranceiverAsynch+0x60>
 6fc:	25 81       	ldd	r18, Z+5	; 0x05
 6fe:	36 81       	ldd	r19, Z+6	; 0x06
 700:	21 15       	cp	r18, r1
 702:	31 05       	cpc	r19, r1
 704:	c9 f0       	breq	.+50     	; 0x738 <SPI_u8BufferTranceiverAsynch+0x60>
 706:	81 e0       	ldi	r24, 0x01	; 1
 708:	80 93 72 00 	sts	0x0072, r24
 70c:	b0 93 76 00 	sts	0x0076, r27
 710:	a0 93 75 00 	sts	0x0075, r26
 714:	50 93 71 00 	sts	0x0071, r21
 718:	40 93 70 00 	sts	0x0070, r20
 71c:	84 81       	ldd	r24, Z+4	; 0x04
 71e:	80 93 77 00 	sts	0x0077, r24
 722:	30 93 74 00 	sts	0x0074, r19
 726:	20 93 73 00 	sts	0x0073, r18
 72a:	10 92 78 00 	sts	0x0078, r1
 72e:	8c 91       	ld	r24, X
 730:	8f b9       	out	0x0f, r24	; 15
 732:	6f 9a       	sbi	0x0d, 7	; 13
 734:	80 e0       	ldi	r24, 0x00	; 0
 736:	08 95       	ret
 738:	82 e0       	ldi	r24, 0x02	; 2
 73a:	08 95       	ret

0000073c <__vector_12>:
 73c:	1f 92       	push	r1
 73e:	0f 92       	push	r0
 740:	0f b6       	in	r0, 0x3f	; 63
 742:	0f 92       	push	r0
 744:	11 24       	eor	r1, r1
 746:	2f 93       	push	r18
 748:	3f 93       	push	r19
 74a:	4f 93       	push	r20
 74c:	5f 93       	push	r21
 74e:	6f 93       	push	r22
 750:	7f 93       	push	r23
 752:	8f 93       	push	r24
 754:	9f 93       	push	r25
 756:	af 93       	push	r26
 758:	bf 93       	push	r27
 75a:	ef 93       	push	r30
 75c:	ff 93       	push	r31
 75e:	90 91 78 00 	lds	r25, 0x0078
 762:	8f b1       	in	r24, 0x0f	; 15
 764:	e0 91 70 00 	lds	r30, 0x0070
 768:	f0 91 71 00 	lds	r31, 0x0071
 76c:	e9 0f       	add	r30, r25
 76e:	f1 1d       	adc	r31, r1
 770:	80 83       	st	Z, r24
 772:	9f 5f       	subi	r25, 0xFF	; 255
 774:	90 93 78 00 	sts	0x0078, r25
 778:	80 91 77 00 	lds	r24, 0x0077
 77c:	98 17       	cp	r25, r24
 77e:	59 f4       	brne	.+22     	; 0x796 <__vector_12+0x5a>
 780:	10 92 72 00 	sts	0x0072, r1
 784:	6f 98       	cbi	0x0d, 7	; 13
 786:	e0 91 73 00 	lds	r30, 0x0073
 78a:	f0 91 74 00 	lds	r31, 0x0074
 78e:	30 97       	sbiw	r30, 0x00	; 0
 790:	51 f0       	breq	.+20     	; 0x7a6 <__vector_12+0x6a>
 792:	09 95       	icall
 794:	08 c0       	rjmp	.+16     	; 0x7a6 <__vector_12+0x6a>
 796:	e0 91 75 00 	lds	r30, 0x0075
 79a:	f0 91 76 00 	lds	r31, 0x0076
 79e:	e9 0f       	add	r30, r25
 7a0:	f1 1d       	adc	r31, r1
 7a2:	80 81       	ld	r24, Z
 7a4:	8f b9       	out	0x0f, r24	; 15
 7a6:	ff 91       	pop	r31
 7a8:	ef 91       	pop	r30
 7aa:	bf 91       	pop	r27
 7ac:	af 91       	pop	r26
 7ae:	9f 91       	pop	r25
 7b0:	8f 91       	pop	r24
 7b2:	7f 91       	pop	r23
 7b4:	6f 91       	pop	r22
 7b6:	5f 91       	pop	r21
 7b8:	4f 91       	pop	r20
 7ba:	3f 91       	pop	r19
 7bc:	2f 91       	pop	r18
 7be:	0f 90       	pop	r0
 7c0:	0f be       	out	0x3f, r0	; 63
 7c2:	0f 90       	pop	r0
 7c4:	1f 90       	pop	r1
 7c6:	18 95       	reti

000007c8 <keypad_u8check_press>:
 7c8:	0f 93       	push	r16
 7ca:	1f 93       	push	r17
 7cc:	df 93       	push	r29
 7ce:	cf 93       	push	r28
 7d0:	cd b7       	in	r28, 0x3d	; 61
 7d2:	de b7       	in	r29, 0x3e	; 62
 7d4:	60 97       	sbiw	r28, 0x10	; 16
 7d6:	0f b6       	in	r0, 0x3f	; 63
 7d8:	f8 94       	cli
 7da:	de bf       	out	0x3e, r29	; 62
 7dc:	0f be       	out	0x3f, r0	; 63
 7de:	cd bf       	out	0x3d, r28	; 61
 7e0:	de 01       	movw	r26, r28
 7e2:	11 96       	adiw	r26, 0x01	; 1
 7e4:	e0 e6       	ldi	r30, 0x60	; 96
 7e6:	f0 e0       	ldi	r31, 0x00	; 0
 7e8:	80 e1       	ldi	r24, 0x10	; 16
 7ea:	01 90       	ld	r0, Z+
 7ec:	0d 92       	st	X+, r0
 7ee:	81 50       	subi	r24, 0x01	; 1
 7f0:	e1 f7       	brne	.-8      	; 0x7ea <keypad_u8check_press+0x22>
 7f2:	00 e0       	ldi	r16, 0x00	; 0
 7f4:	81 e4       	ldi	r24, 0x41	; 65
 7f6:	60 e0       	ldi	r22, 0x00	; 0
 7f8:	41 e0       	ldi	r20, 0x01	; 1
 7fa:	0e 94 bb 00 	call	0x176	; 0x176 <DIO_write>
 7fe:	81 e4       	ldi	r24, 0x41	; 65
 800:	61 e0       	ldi	r22, 0x01	; 1
 802:	41 e0       	ldi	r20, 0x01	; 1
 804:	0e 94 bb 00 	call	0x176	; 0x176 <DIO_write>
 808:	81 e4       	ldi	r24, 0x41	; 65
 80a:	62 e0       	ldi	r22, 0x02	; 2
 80c:	41 e0       	ldi	r20, 0x01	; 1
 80e:	0e 94 bb 00 	call	0x176	; 0x176 <DIO_write>
 812:	81 e4       	ldi	r24, 0x41	; 65
 814:	63 e0       	ldi	r22, 0x03	; 3
 816:	41 e0       	ldi	r20, 0x01	; 1
 818:	0e 94 bb 00 	call	0x176	; 0x176 <DIO_write>
 81c:	81 e4       	ldi	r24, 0x41	; 65
 81e:	60 2f       	mov	r22, r16
 820:	40 e0       	ldi	r20, 0x00	; 0
 822:	0e 94 bb 00 	call	0x176	; 0x176 <DIO_write>
 826:	10 e0       	ldi	r17, 0x00	; 0
 828:	61 2f       	mov	r22, r17
 82a:	6c 5f       	subi	r22, 0xFC	; 252
 82c:	81 e4       	ldi	r24, 0x41	; 65
 82e:	0e 94 2d 01 	call	0x25a	; 0x25a <DIO_u8read>
 832:	88 23       	and	r24, r24
 834:	61 f4       	brne	.+24     	; 0x84e <keypad_u8check_press+0x86>
 836:	e0 2f       	mov	r30, r16
 838:	f0 e0       	ldi	r31, 0x00	; 0
 83a:	ee 0f       	add	r30, r30
 83c:	ff 1f       	adc	r31, r31
 83e:	ee 0f       	add	r30, r30
 840:	ff 1f       	adc	r31, r31
 842:	e1 0f       	add	r30, r17
 844:	f1 1d       	adc	r31, r1
 846:	ec 0f       	add	r30, r28
 848:	fd 1f       	adc	r31, r29
 84a:	81 81       	ldd	r24, Z+1	; 0x01
 84c:	07 c0       	rjmp	.+14     	; 0x85c <keypad_u8check_press+0x94>
 84e:	1f 5f       	subi	r17, 0xFF	; 255
 850:	14 30       	cpi	r17, 0x04	; 4
 852:	51 f7       	brne	.-44     	; 0x828 <keypad_u8check_press+0x60>
 854:	0f 5f       	subi	r16, 0xFF	; 255
 856:	04 30       	cpi	r16, 0x04	; 4
 858:	69 f6       	brne	.-102    	; 0x7f4 <keypad_u8check_press+0x2c>
 85a:	8f ef       	ldi	r24, 0xFF	; 255
 85c:	60 96       	adiw	r28, 0x10	; 16
 85e:	0f b6       	in	r0, 0x3f	; 63
 860:	f8 94       	cli
 862:	de bf       	out	0x3e, r29	; 62
 864:	0f be       	out	0x3f, r0	; 63
 866:	cd bf       	out	0x3d, r28	; 61
 868:	cf 91       	pop	r28
 86a:	df 91       	pop	r29
 86c:	1f 91       	pop	r17
 86e:	0f 91       	pop	r16
 870:	08 95       	ret

00000872 <keypad_vInit>:
 872:	81 e4       	ldi	r24, 0x41	; 65
 874:	60 e0       	ldi	r22, 0x00	; 0
 876:	41 e0       	ldi	r20, 0x01	; 1
 878:	0e 94 49 00 	call	0x92	; 0x92 <DIO_vsetPINDir>
 87c:	81 e4       	ldi	r24, 0x41	; 65
 87e:	61 e0       	ldi	r22, 0x01	; 1
 880:	41 e0       	ldi	r20, 0x01	; 1
 882:	0e 94 49 00 	call	0x92	; 0x92 <DIO_vsetPINDir>
 886:	81 e4       	ldi	r24, 0x41	; 65
 888:	62 e0       	ldi	r22, 0x02	; 2
 88a:	41 e0       	ldi	r20, 0x01	; 1
 88c:	0e 94 49 00 	call	0x92	; 0x92 <DIO_vsetPINDir>
 890:	81 e4       	ldi	r24, 0x41	; 65
 892:	63 e0       	ldi	r22, 0x03	; 3
 894:	41 e0       	ldi	r20, 0x01	; 1
 896:	0e 94 49 00 	call	0x92	; 0x92 <DIO_vsetPINDir>
 89a:	81 e4       	ldi	r24, 0x41	; 65
 89c:	64 e0       	ldi	r22, 0x04	; 4
 89e:	40 e0       	ldi	r20, 0x00	; 0
 8a0:	0e 94 49 00 	call	0x92	; 0x92 <DIO_vsetPINDir>
 8a4:	81 e4       	ldi	r24, 0x41	; 65
 8a6:	65 e0       	ldi	r22, 0x05	; 5
 8a8:	40 e0       	ldi	r20, 0x00	; 0
 8aa:	0e 94 49 00 	call	0x92	; 0x92 <DIO_vsetPINDir>
 8ae:	81 e4       	ldi	r24, 0x41	; 65
 8b0:	66 e0       	ldi	r22, 0x06	; 6
 8b2:	40 e0       	ldi	r20, 0x00	; 0
 8b4:	0e 94 49 00 	call	0x92	; 0x92 <DIO_vsetPINDir>
 8b8:	81 e4       	ldi	r24, 0x41	; 65
 8ba:	67 e0       	ldi	r22, 0x07	; 7
 8bc:	40 e0       	ldi	r20, 0x00	; 0
 8be:	0e 94 49 00 	call	0x92	; 0x92 <DIO_vsetPINDir>
 8c2:	81 e4       	ldi	r24, 0x41	; 65
 8c4:	64 e0       	ldi	r22, 0x04	; 4
 8c6:	41 e0       	ldi	r20, 0x01	; 1
 8c8:	0e 94 d7 01 	call	0x3ae	; 0x3ae <DIO_vconnectpullup>
 8cc:	81 e4       	ldi	r24, 0x41	; 65
 8ce:	65 e0       	ldi	r22, 0x05	; 5
 8d0:	41 e0       	ldi	r20, 0x01	; 1
 8d2:	0e 94 d7 01 	call	0x3ae	; 0x3ae <DIO_vconnectpullup>
 8d6:	81 e4       	ldi	r24, 0x41	; 65
 8d8:	66 e0       	ldi	r22, 0x06	; 6
 8da:	41 e0       	ldi	r20, 0x01	; 1
 8dc:	0e 94 d7 01 	call	0x3ae	; 0x3ae <DIO_vconnectpullup>
 8e0:	81 e4       	ldi	r24, 0x41	; 65
 8e2:	67 e0       	ldi	r22, 0x07	; 7
 8e4:	41 e0       	ldi	r20, 0x01	; 1
 8e6:	0e 94 d7 01 	call	0x3ae	; 0x3ae <DIO_vconnectpullup>
 8ea:	08 95       	ret

000008ec <main>:
 8ec:	ef 92       	push	r14
 8ee:	ff 92       	push	r15
 8f0:	0f 93       	push	r16
 8f2:	1f 93       	push	r17
 8f4:	df 93       	push	r29
 8f6:	cf 93       	push	r28
 8f8:	0f 92       	push	r0
 8fa:	cd b7       	in	r28, 0x3d	; 61
 8fc:	de b7       	in	r29, 0x3e	; 62
 8fe:	0e 94 39 04 	call	0x872	; 0x872 <keypad_vInit>
 902:	0e 94 96 02 	call	0x52c	; 0x52c <SPI_vInit>
 906:	8f 9a       	sbi	0x11, 7	; 17
 908:	8e 98       	cbi	0x11, 6	; 17
 90a:	8d 9a       	sbi	0x11, 5	; 17
 90c:	8c 9a       	sbi	0x11, 4	; 17
 90e:	7e 01       	movw	r14, r28
 910:	08 94       	sec
 912:	e1 1c       	adc	r14, r1
 914:	f1 1c       	adc	r15, r1
 916:	08 ec       	ldi	r16, 0xC8	; 200
 918:	10 e0       	ldi	r17, 0x00	; 0
 91a:	0e 94 e4 03 	call	0x7c8	; 0x7c8 <keypad_u8check_press>
 91e:	8f 3f       	cpi	r24, 0xFF	; 255
 920:	21 f0       	breq	.+8      	; 0x92a <main+0x3e>
 922:	90 e0       	ldi	r25, 0x00	; 0
 924:	b7 01       	movw	r22, r14
 926:	0e 94 1a 03 	call	0x634	; 0x634 <SPI_u8Tranceive>
 92a:	84 ec       	ldi	r24, 0xC4	; 196
 92c:	99 e0       	ldi	r25, 0x09	; 9
 92e:	f8 01       	movw	r30, r16
 930:	31 97       	sbiw	r30, 0x01	; 1
 932:	f1 f7       	brne	.-4      	; 0x930 <main+0x44>
 934:	01 97       	sbiw	r24, 0x01	; 1
 936:	89 f3       	breq	.-30     	; 0x91a <main+0x2e>
 938:	fa cf       	rjmp	.-12     	; 0x92e <main+0x42>

0000093a <_exit>:
 93a:	f8 94       	cli

0000093c <__stop_program>:
 93c:	ff cf       	rjmp	.-2      	; 0x93c <__stop_program>
